target datalayout = "e-m:e-p270:32:32-p271:32:32-p272:64:64-i64:64-i128:128-f80:128-n8:16:32:64-S128"
target triple = "x86_64-pc-linux-gnu"

%struct._object = type { %union.anon, ptr }
%union.anon = type { i64 }
%struct.PyVarObject = type { %struct._object, i64 }
%struct.PyListObject = type { %struct.PyVarObject, ptr, i64 }

; Function Attrs: inlinehint nounwind uwtable
define internal i64 @Py_SIZE(ptr noundef %0) #2 {
  %2 = alloca ptr, align 8
  store ptr %0, ptr %2, align 8, !tbaa !36
  %3 = load ptr, ptr %2, align 8, !tbaa !36
  %4 = getelementptr inbounds nuw %struct.PyVarObject, ptr %3, i32 0, i32 1
  %5 = load i64, ptr %4, align 8, !tbaa !38
  ret i64 %5
}

; Function Attrs: nounwind uwtable
define internal i32 @list_traverse(ptr noundef %0, ptr noundef %1, ptr noundef %2) #0 {
  %4 = alloca i32, align 4
  %5 = alloca ptr, align 8
  %6 = alloca ptr, align 8
  %7 = alloca ptr, align 8
  %8 = alloca ptr, align 8
  %9 = alloca i64, align 8
  %10 = alloca i32, align 4
  %11 = alloca i32, align 4
  store ptr %0, ptr %5, align 8, !tbaa !36
  store ptr %1, ptr %6, align 8, !tbaa !27
  store ptr %2, ptr %7, align 8, !tbaa !27
  call void @llvm.lifetime.start.p0(i64 8, ptr %8) #8
  %12 = load ptr, ptr %5, align 8, !tbaa !36
  store ptr %12, ptr %8, align 8, !tbaa !27
  call void @llvm.lifetime.start.p0(i64 8, ptr %9) #8
  %13 = load ptr, ptr %8, align 8, !tbaa !27
  %14 = call i64 @Py_SIZE(ptr noundef %13)
  store i64 %14, ptr %9, align 8, !tbaa !26
  br label %15

15:                                               ; preds = %48, %3
  %16 = load i64, ptr %9, align 8, !tbaa !26
  %17 = add i64 %16, -1
  store i64 %17, ptr %9, align 8, !tbaa !26
  %18 = icmp sge i64 %17, 0
  br i1 %18, label %19, label %49

19:                                               ; preds = %15
  br label %20

20:                                               ; preds = %19
  %21 = load ptr, ptr %8, align 8, !tbaa !27
  %22 = getelementptr inbounds nuw %struct.PyListObject, ptr %21, i32 0, i32 1
  %23 = load ptr, ptr %22, align 8, !tbaa !28
  %24 = load i64, ptr %9, align 8, !tbaa !26
  %25 = getelementptr ptr, ptr %23, i64 %24
  %26 = load ptr, ptr %25, align 8, !tbaa !36
  %27 = icmp ne ptr %26, null
  br i1 %27, label %28, label %46

28:                                               ; preds = %20
  call void @llvm.lifetime.start.p0(i64 4, ptr %10) #8
  %29 = load ptr, ptr %6, align 8, !tbaa !27
  %30 = load ptr, ptr %8, align 8, !tbaa !27
  %31 = getelementptr inbounds nuw %struct.PyListObject, ptr %30, i32 0, i32 1
  %32 = load ptr, ptr %31, align 8, !tbaa !28
  %33 = load i64, ptr %9, align 8, !tbaa !26
  %34 = getelementptr ptr, ptr %32, i64 %33
  %35 = load ptr, ptr %34, align 8, !tbaa !36
  %36 = load ptr, ptr %7, align 8, !tbaa !27
  %37 = call i32 %29(ptr noundef %35, ptr noundef %36)
  store i32 %37, ptr %10, align 4, !tbaa !118
  %38 = load i32, ptr %10, align 4, !tbaa !118
  %39 = icmp ne i32 %38, 0
  br i1 %39, label %40, label %42

40:                                               ; preds = %28
  %41 = load i32, ptr %10, align 4, !tbaa !118
  store i32 %41, ptr %4, align 4
  store i32 1, ptr %11, align 4
  br label %43

42:                                               ; preds = %28
  store i32 0, ptr %11, align 4
  br label %43

43:                                               ; preds = %42, %40
  call void @llvm.lifetime.end.p0(i64 4, ptr %10) #8
  %44 = load i32, ptr %11, align 4
  switch i32 %44, label %50 [
    i32 0, label %45
  ]

45:                                               ; preds = %43
  br label %46

46:                                               ; preds = %45, %20
  br label %47

47:                                               ; preds = %46
  br label %48

48:                                               ; preds = %47
  br label %15, !llvm.loop !154

49:                                               ; preds = %15
  store i32 0, ptr %4, align 4
  store i32 1, ptr %11, align 4
  br label %50

50:                                               ; preds = %49, %43
  call void @llvm.lifetime.end.p0(i64 8, ptr %9) #8
  call void @llvm.lifetime.end.p0(i64 8, ptr %8) #8
  %51 = load i32, ptr %4, align 4
  ret i32 %51
}