; Function Attrs: nounwind uwtable
define internal i32 @list_traverse(ptr noundef readonly captures(none) %0, ptr noundef readonly captures(none) %1, ptr noundef %2) #0 {
  %4 = getelementptr i8, ptr %0, i64 16
  %.val = load i64, ptr %4, align 8, !tbaa !33
  %5 = add i64 %.val, -1
  %6 = icmp sgt i64 %5, -1
  br i1 %6, label %.lr.ph, label %._crit_edge

.lr.ph:                                           ; preds = %3
  %7 = getelementptr inbounds nuw i8, ptr %0, i64 24
  br label %8

8:                                                ; preds = %.lr.ph, %15
  %9 = phi i64 [ %5, %.lr.ph ], [ %16, %15 ]
  %10 = load ptr, ptr %7, align 8, !tbaa !27
  %11 = getelementptr ptr, ptr %10, i64 %9
  %12 = load ptr, ptr %11, align 8, !tbaa !112
  %.not = icmp eq ptr %12, null
  br i1 %.not, label %15, label %13

13:                                               ; preds = %8
  %14 = tail call i32 %1(ptr noundef nonnull %12, ptr noundef %2) #12
  %.not17 = icmp eq i32 %14, 0
  br i1 %.not17, label %15, label %._crit_edge

15:                                               ; preds = %13, %8
  %16 = add nsw i64 %9, -1
  %17 = icmp sgt i64 %9, 0
  br i1 %17, label %8, label %._crit_edge, !llvm.loop !167

._crit_edge:                                      ; preds = %13, %15, %3
  %.2 = phi i32 [ 0, %3 ], [ 0, %15 ], [ %14, %13 ]
  ret i32 %.2
}